target datalayout = "e-m:e-p270:32:32-p271:32:32-p272:64:64-i64:64-i128:128-f80:128-n8:16:32:64-S128"
target triple = "x86_64-pc-linux-gnu"

%struct.timeval = type { i64, i64 }

; Function Attrs: nounwind uwtable
define dso_local double @getTime() #0 {
  %1 = alloca double, align 8
  %2 = alloca %struct.timeval, align 8
  %3 = alloca i32, align 4
  call void @llvm.lifetime.start.p0(i64 16, ptr %2) #3
  %4 = call i32 @gettimeofday(ptr noundef %2, ptr noundef null) #3
  %5 = icmp slt i32 %4, 0
  br i1 %5, label %6, label %7

6:                                                ; preds = %0
  store double 0.000000e+00, ptr %1, align 8
  store i32 1, ptr %3, align 4
  br label %16

7:                                                ; preds = %0
  %8 = getelementptr inbounds nuw %struct.timeval, ptr %2, i32 0, i32 0
  %9 = load i64, ptr %8, align 8, !tbaa !4
  %10 = sitofp i64 %9 to double
  %11 = getelementptr inbounds nuw %struct.timeval, ptr %2, i32 0, i32 1
  %12 = load i64, ptr %11, align 8, !tbaa !9
  %13 = sitofp i64 %12 to double
  %14 = fdiv double %13, 1.000000e+06
  %15 = fadd double %10, %14
  store double %15, ptr %1, align 8
  store i32 1, ptr %3, align 4
  br label %16

16:                                               ; preds = %7, %6
  call void @llvm.lifetime.end.p0(i64 16, ptr %2) #3
  %17 = load double, ptr %1, align 8
  ret double %17
}

; Function Attrs: nocallback nofree nosync nounwind willreturn memory(argmem: readwrite)
declare void @llvm.lifetime.start.p0(i64 immarg, ptr captures(none)) #1

; Function Attrs: nounwind
declare i32 @gettimeofday(ptr noundef, ptr noundef) #2

; Function Attrs: nocallback nofree nosync nounwind willreturn memory(argmem: readwrite)
declare void @llvm.lifetime.end.p0(i64 immarg, ptr captures(none)) #1


!llvm.module.flags = !{!0, !1, !2, !3}

!0 = !{i32 1, !"wchar_size", i32 4}
!1 = !{i32 8, !"PIC Level", i32 2}
!2 = !{i32 7, !"PIE Level", i32 2}
!3 = !{i32 7, !"uwtable", i32 2}
!4 = !{!5, !6, i64 0}
!5 = !{!"timeval", !6, i64 0, !6, i64 8}
!6 = !{!"long", !7, i64 0}
!7 = !{!"omnipotent char", !8, i64 0}
!8 = !{!"Simple C/C++ TBAA"}
!9 = !{!5, !6, i64 8}
