; ModuleID = 'bench/libjpeg-turbo/original/tjutil.ll'
source_filename = "bench/libjpeg-turbo/original/tjutil.ll"
target datalayout = "e-m:e-p270:32:32-p271:32:32-p272:64:64-i64:64-i128:128-f80:128-n8:16:32:64-S128"
target triple = "x86_64-pc-linux-gnu"

%struct.timeval = type { i64, i64 }

; Function Attrs: nofree nounwind uwtable
define dso_local double @getTime() local_unnamed_addr #0 {
  %1 = alloca %struct.timeval, align 8
  call void @llvm.lifetime.start.p0(i64 16, ptr nonnull %1) #3
  %2 = call i32 @gettimeofday(ptr noundef nonnull %1, ptr noundef null) #3
  %3 = icmp slt i32 %2, 0
  br i1 %3, label %12, label %4

4:                                                ; preds = %0
  %5 = load i64, ptr %1, align 8, !tbaa !4
  %6 = sitofp i64 %5 to double
  %7 = getelementptr inbounds nuw i8, ptr %1, i64 8
  %8 = load i64, ptr %7, align 8, !tbaa !9
  %9 = sitofp i64 %8 to double
  %10 = fdiv double %9, 1.000000e+06
  %11 = fadd double %10, %6
  br label %12

12:                                               ; preds = %0, %4
  %.0 = phi double [ %11, %4 ], [ 0.000000e+00, %0 ]
  call void @llvm.lifetime.end.p0(i64 16, ptr nonnull %1) #3
  ret double %.0
}

; Function Attrs: mustprogress nocallback nofree nosync nounwind willreturn memory(argmem: readwrite)
declare void @llvm.lifetime.start.p0(i64 immarg, ptr captures(none)) #1

; Function Attrs: nofree nounwind
declare noundef i32 @gettimeofday(ptr noundef captures(none), ptr noundef captures(none)) local_unnamed_addr #2

; Function Attrs: mustprogress nocallback nofree nosync nounwind willreturn memory(argmem: readwrite)
declare void @llvm.lifetime.end.p0(i64 immarg, ptr captures(none)) #1


!llvm.module.flags = !{!0, !1, !2, !3}

!0 = !{i32 1, !"wchar_size", i32 4}
!1 = !{i32 8, !"PIC Level", i32 2}
!2 = !{i32 7, !"PIE Level", i32 2}
!3 = !{i32 7, !"uwtable", i32 2}
!4 = !{!5, !6, i64 0}
!5 = !{!"timeval", !6, i64 0, !6, i64 8}
!6 = !{!"long", !7, i64 0}
!7 = !{!"omnipotent char", !8, i64 0}
!8 = !{!"Simple C/C++ TBAA"}
!9 = !{!5, !6, i64 8}
